target datalayout = "e-m:e-p270:32:32-p271:32:32-p272:64:64-i64:64-i128:128-f80:128-n8:16:32:64-S128"
target triple = "x86_64-pc-linux-gnu"

@hf_rsl_ie_id = internal global i32 0, align 4
@hf_rsl_ie_length = internal global i32 0, align 4
@hf_rsl_osmo_rep_acch_rxqual = internal global i32 0, align 4
@hf_rsl_osmo_rep_acch_ul_sacch = internal global i32 0, align 4
@hf_rsl_osmo_rep_acch_dl_sacch = internal global i32 0, align 4
@hf_rsl_osmo_rep_acch_dl_facch_all = internal global i32 0, align 4
@hf_rsl_osmo_rep_acch_dl_facch_cmd = internal global i32 0, align 4
@ett_ie_osmo_rep_acch_cap = internal global i32 0, align 4
@.str.813 = private unnamed_addr constant [38 x i8] c"Osmocom Repeated ACCH Capabilities IE\00", align 1

; Function Attrs: null_pointer_is_valid sspstrong uwtable
define internal i32 @dissect_rsl_ie_osmo_rep_acch_cap(ptr noundef %0, ptr noundef %1, ptr noundef %2, i32 noundef %3, i1 noundef zeroext %4) #0 {
  %6 = alloca i32, align 4
  %7 = alloca ptr, align 8
  %8 = alloca ptr, align 8
  %9 = alloca ptr, align 8
  %10 = alloca i32, align 4
  %11 = alloca i8, align 1
  %12 = alloca ptr, align 8
  %13 = alloca ptr, align 8
  %14 = alloca i32, align 4
  %15 = alloca i8, align 1
  %16 = alloca i32, align 4
  store ptr %0, ptr %7, align 8
  store ptr %1, ptr %8, align 8
  store ptr %2, ptr %9, align 8
  store i32 %3, ptr %10, align 4
  %17 = zext i1 %4 to i8
  store i8 %17, ptr %11, align 1
  call void @llvm.lifetime.start.p0(i64 8, ptr %12) #6
  call void @llvm.lifetime.start.p0(i64 8, ptr %13) #6
  call void @llvm.lifetime.start.p0(i64 4, ptr %14) #6
  call void @llvm.lifetime.start.p0(i64 1, ptr %15) #6
  %18 = load i8, ptr %11, align 1, !range !6, !noundef !7
  %19 = trunc i8 %18 to i1
  %20 = zext i1 %19 to i32
  %21 = icmp eq i32 %20, 0
  br i1 %21, label %22, label %32

22:                                               ; preds = %5
  %23 = load ptr, ptr %7, align 8
  %24 = load i32, ptr %10, align 4
  %25 = call zeroext i8 @tvb_get_uint8(ptr noundef %23, i32 noundef %24)
  store i8 %25, ptr %15, align 1
  %26 = load i8, ptr %15, align 1
  %27 = zext i8 %26 to i32
  %28 = icmp ne i32 %27, 96
  br i1 %28, label %29, label %31

29:                                               ; preds = %22
  %30 = load i32, ptr %10, align 4
  store i32 %30, ptr %6, align 4
  store i32 1, ptr %16, align 4
  br label %81

31:                                               ; preds = %22
  br label %32

32:                                               ; preds = %31, %5
  %33 = load ptr, ptr %9, align 8
  %34 = load ptr, ptr %7, align 8
  %35 = load i32, ptr %10, align 4
  %36 = load i32, ptr @ett_ie_osmo_rep_acch_cap, align 4
  %37 = call ptr @proto_tree_add_subtree(ptr noundef %33, ptr noundef %34, i32 noundef %35, i32 noundef 0, i32 noundef %36, ptr noundef %12, ptr noundef @.str.813)
  store ptr %37, ptr %13, align 8
  %38 = load ptr, ptr %13, align 8
  %39 = load i32, ptr @hf_rsl_ie_id, align 4
  %40 = load ptr, ptr %7, align 8
  %41 = load i32, ptr %10, align 4
  %42 = add i32 %41, 1
  store i32 %42, ptr %10, align 4
  %43 = call ptr @proto_tree_add_item(ptr noundef %38, i32 noundef %39, ptr noundef %40, i32 noundef %41, i32 noundef 1, i32 noundef 0)
  %44 = load ptr, ptr %13, align 8
  %45 = load i32, ptr @hf_rsl_ie_length, align 4
  %46 = load ptr, ptr %7, align 8
  %47 = load i32, ptr %10, align 4
  %48 = add i32 %47, 1
  store i32 %48, ptr %10, align 4
  %49 = call ptr @proto_tree_add_item_ret_uint(ptr noundef %44, i32 noundef %45, ptr noundef %46, i32 noundef %47, i32 noundef 1, i32 noundef 0, ptr noundef %14)
  %50 = load ptr, ptr %12, align 8
  %51 = load i32, ptr %14, align 4
  %52 = add i32 %51, 2
  call void @proto_item_set_len(ptr noundef %50, i32 noundef %52)
  %53 = load ptr, ptr %13, align 8
  %54 = load i32, ptr @hf_rsl_osmo_rep_acch_rxqual, align 4
  %55 = load ptr, ptr %7, align 8
  %56 = load i32, ptr %10, align 4
  %57 = call ptr @proto_tree_add_item(ptr noundef %53, i32 noundef %54, ptr noundef %55, i32 noundef %56, i32 noundef 1, i32 noundef 0)
  %58 = load ptr, ptr %13, align 8
  %59 = load i32, ptr @hf_rsl_osmo_rep_acch_ul_sacch, align 4
  %60 = load ptr, ptr %7, align 8
  %61 = load i32, ptr %10, align 4
  %62 = call ptr @proto_tree_add_item(ptr noundef %58, i32 noundef %59, ptr noundef %60, i32 noundef %61, i32 noundef 1, i32 noundef 0)
  %63 = load ptr, ptr %13, align 8
  %64 = load i32, ptr @hf_rsl_osmo_rep_acch_dl_sacch, align 4
  %65 = load ptr, ptr %7, align 8
  %66 = load i32, ptr %10, align 4
  %67 = call ptr @proto_tree_add_item(ptr noundef %63, i32 noundef %64, ptr noundef %65, i32 noundef %66, i32 noundef 1, i32 noundef 0)
  %68 = load ptr, ptr %13, align 8
  %69 = load i32, ptr @hf_rsl_osmo_rep_acch_dl_facch_all, align 4
  %70 = load ptr, ptr %7, align 8
  %71 = load i32, ptr %10, align 4
  %72 = call ptr @proto_tree_add_item(ptr noundef %68, i32 noundef %69, ptr noundef %70, i32 noundef %71, i32 noundef 1, i32 noundef 0)
  %73 = load ptr, ptr %13, align 8
  %74 = load i32, ptr @hf_rsl_osmo_rep_acch_dl_facch_cmd, align 4
  %75 = load ptr, ptr %7, align 8
  %76 = load i32, ptr %10, align 4
  %77 = call ptr @proto_tree_add_item(ptr noundef %73, i32 noundef %74, ptr noundef %75, i32 noundef %76, i32 noundef 1, i32 noundef 0)
  %78 = load i32, ptr %10, align 4
  %79 = add i32 %78, 1
  store i32 %79, ptr %10, align 4
  %80 = load i32, ptr %10, align 4
  store i32 %80, ptr %6, align 4
  store i32 1, ptr %16, align 4
  br label %81

81:                                               ; preds = %32, %29
  call void @llvm.lifetime.end.p0(i64 1, ptr %15) #6
  call void @llvm.lifetime.end.p0(i64 4, ptr %14) #6
  call void @llvm.lifetime.end.p0(i64 8, ptr %13) #6
  call void @llvm.lifetime.end.p0(i64 8, ptr %12) #6
  %82 = load i32, ptr %6, align 4
  ret i32 %82
}